; Function Attrs: mustprogress uwtable
define noundef i32 @_Z12get_acffitfnv() local_unnamed_addr #0 personality ptr @__gxx_personality_v0 {
  %1 = alloca %"class.std::filesystem::__cxx11::path", align 8
  %.b1 = load i1, ptr @_ZL8bACFinit, align 1
  br i1 %.b1, label %6, label %2

2:                                                ; preds = %0
  call void @_ZNSt10filesystem7__cxx114pathC2IA139_cS1_EERKT_NS1_6formatE(ptr noundef nonnull align 8 dereferenceable(40) %1, ptr noundef nonnull align 1 dereferenceable(139) @.str, i8 noundef zeroext 2)
  invoke void (i32, ptr, i32, ptr, ...) @_Z9gmx_fataliRKNSt10filesystem7__cxx114pathEiPKcz(i32 noundef 0, ptr noundef nonnull align 8 dereferenceable(40) %1, i32 noundef 845, ptr noundef nonnull @.str.68) #18
          to label %3 unwind label %4

3:                                                ; preds = %2
  unreachable

4:                                                ; preds = %2
  %5 = landingpad { ptr, i32 }
          cleanup
  call void @_ZNSt10filesystem7__cxx114pathD2Ev(ptr noundef nonnull align 8 dereferenceable(40) %1) #19
  resume { ptr, i32 } %5

6:                                                ; preds = %0
  %7 = tail call noundef i32 @_Z9sffn2effnPPKc(ptr noundef nonnull @s_ffn)
  ret i32 %7
}